target datalayout = "e-m:e-p270:32:32-p271:32:32-p272:64:64-i64:64-i128:128-f80:128-n8:16:32:64-S128"
target triple = "x86_64-pc-linux-gnu"

%class.XPhysicalMemory = type { %class.GrowableArrayCHeap }
%class.GrowableArrayCHeap = type { %class.GrowableArrayWithAllocator }
%class.GrowableArrayWithAllocator = type { %class.GrowableArrayView }
%class.GrowableArrayView = type { %class.GrowableArrayBase, ptr }
%class.GrowableArrayBase = type { i32, i32 }
%class.XPhysicalMemorySegment = type <{ i64, i64, i8, [7 x i8] }>

; Function Attrs: mustprogress nounwind uwtable
define linkonce_odr hidden void @_ZN22XPhysicalMemorySegmentC2Emmb(ptr noundef nonnull align 8 dereferenceable(17) %0, i64 noundef %1, i64 noundef %2, i1 noundef zeroext %3) unnamed_addr #1 comdat align 2 {
  %5 = alloca ptr, align 8
  %6 = alloca i64, align 8
  %7 = alloca i64, align 8
  %8 = alloca i8, align 1
  store ptr %0, ptr %5, align 8
  store i64 %1, ptr %6, align 8
  store i64 %2, ptr %7, align 8
  %9 = zext i1 %3 to i8
  store i8 %9, ptr %8, align 1
  %10 = load ptr, ptr %5, align 8
  %11 = getelementptr inbounds %class.XPhysicalMemorySegment, ptr %10, i32 0, i32 0
  %12 = load i64, ptr %6, align 8
  store i64 %12, ptr %11, align 8
  %13 = getelementptr inbounds %class.XPhysicalMemorySegment, ptr %10, i32 0, i32 1
  %14 = load i64, ptr %6, align 8
  %15 = load i64, ptr %7, align 8
  %16 = add i64 %14, %15
  store i64 %16, ptr %13, align 8
  %17 = getelementptr inbounds %class.XPhysicalMemorySegment, ptr %10, i32 0, i32 2
  %18 = load i8, ptr %8, align 1
  %19 = trunc i8 %18 to i1
  %20 = zext i1 %19 to i8
  store i8 %20, ptr %17, align 8
  ret void
}

; Function Attrs: mustprogress nounwind uwtable
define hidden void @_ZN15XPhysicalMemory14insert_segmentEimmb(ptr noundef nonnull align 8 dereferenceable(16) %0, i32 noundef %1, i64 noundef %2, i64 noundef %3, i1 noundef zeroext %4) #1 align 2 {
  %6 = alloca ptr, align 8
  %7 = alloca i32, align 4
  %8 = alloca i64, align 8
  %9 = alloca i64, align 8
  %10 = alloca i8, align 1
  %11 = alloca %class.XPhysicalMemorySegment, align 8
  store ptr %0, ptr %6, align 8
  store i32 %1, ptr %7, align 4
  store i64 %2, ptr %8, align 8
  store i64 %3, ptr %9, align 8
  %12 = zext i1 %4 to i8
  store i8 %12, ptr %10, align 1
  %13 = load ptr, ptr %6, align 8
  %14 = getelementptr inbounds %class.XPhysicalMemory, ptr %13, i32 0, i32 0
  %15 = load i32, ptr %7, align 4
  %16 = load i64, ptr %8, align 8
  %17 = load i64, ptr %9, align 8
  %18 = load i8, ptr %10, align 1
  %19 = trunc i8 %18 to i1
  call void @_ZN22XPhysicalMemorySegmentC2Emmb(ptr noundef nonnull align 8 dereferenceable(17) %11, i64 noundef %16, i64 noundef %17, i1 noundef zeroext %19)
  call void @_ZN26GrowableArrayWithAllocatorI22XPhysicalMemorySegment18GrowableArrayCHeapIS0_L8MEMFLAGS5EEE13insert_beforeEiRKS0_(ptr noundef nonnull align 8 dereferenceable(16) %14, i32 noundef %15, ptr noundef nonnull align 8 dereferenceable(17) %11)
  ret void
}