; Function Attrs: mustprogress nounwind uwtable
define hidden void @_ZN15XPhysicalMemory14insert_segmentEimmb(ptr noundef nonnull align 8 dereferenceable(16) %0, i32 noundef %1, i64 noundef %2, i64 noundef %3, i1 noundef zeroext %4) local_unnamed_addr #1 align 2 {
  %6 = alloca %class.XPhysicalMemorySegment, align 8
  %7 = zext i1 %4 to i8
  store i64 %2, ptr %6, align 8
  %8 = getelementptr inbounds i8, ptr %6, i64 8
  %9 = add i64 %3, %2
  store i64 %9, ptr %8, align 8
  %10 = getelementptr inbounds i8, ptr %6, i64 16
  store i8 %7, ptr %10, align 8
  call void @_ZN26GrowableArrayWithAllocatorI22XPhysicalMemorySegment18GrowableArrayCHeapIS0_L8MEMFLAGS5EEE13insert_beforeEiRKS0_(ptr noundef nonnull align 8 dereferenceable(16) %0, i32 noundef %1, ptr noundef nonnull align 8 dereferenceable(17) %6)
  ret void
}